target datalayout = "e-m:e-p270:32:32-p271:32:32-p272:64:64-i64:64-i128:128-f80:128-n8:16:32:64-S128"
target triple = "x86_64-pc-linux-gnu"

%class.params_ref = type { ptr }
%class.obj_ref = type { ptr, ptr }
%class.svector.11 = type { %class.vector.12 }
%class.vector.12 = type { ptr }
%class.ast_manager = type { %class.reslimit, %class.small_object_allocator, %class.family_manager, %class.parray_manager, %class.dependency_manager, %class.parray_manager.28, %class.ptr_vector.31, i32, i8, %class.ast_table, %class.obj_map, %class.id_gen, %class.id_gen, ptr, ptr, ptr, ptr, ptr, i32, i8, [3 x i8], %class.u_map, ptr, i8, i8, ptr, %class.symbol, %class.obj_map.38, ptr }
%class.reslimit = type { %"struct.std::atomic", i8, i64, i64, %class.svector.13, %class.ptr_vector.15 }
%"struct.std::atomic" = type { %"struct.std::__atomic_base" }
%"struct.std::__atomic_base" = type { i32 }
%class.svector.13 = type { %class.vector.14 }
%class.vector.14 = type { ptr }
%class.ptr_vector.15 = type { %class.vector.16 }
%class.vector.16 = type { ptr }
%class.small_object_allocator = type { [32 x ptr], [32 x ptr], i64 }
%class.family_manager = type { i32, %class.symbol_table, %class.svector.22 }
%class.symbol_table = type { %class.core_hashtable.17, %class.vector.19, %class.svector.20 }
%class.core_hashtable.17 = type <{ ptr, i32, i32, i32, [4 x i8] }>
%class.vector.19 = type { ptr }
%class.svector.20 = type { %class.vector.21 }
%class.vector.21 = type { ptr }
%class.svector.22 = type { %class.vector.23 }
%class.vector.23 = type { ptr }
%class.parray_manager = type { ptr, ptr, %class.ptr_vector.24, %class.ptr_vector.24 }
%class.ptr_vector.24 = type { %class.vector.25 }
%class.vector.25 = type { ptr }
%class.dependency_manager = type { ptr, ptr, %class.ptr_vector.26 }
%class.ptr_vector.26 = type { %class.vector.27 }
%class.vector.27 = type { ptr }
%class.parray_manager.28 = type { ptr, ptr, %class.ptr_vector.29, %class.ptr_vector.29 }
%class.ptr_vector.29 = type { %class.vector.30 }
%class.vector.30 = type { ptr }
%class.ptr_vector.31 = type { %class.vector.32 }
%class.vector.32 = type { ptr }
%class.ast_table = type { %class.chashtable }
%class.chashtable = type { ptr, i32, i32, i32, i32, i32, i32, i32, ptr, ptr, ptr }
%class.obj_map = type { %class.core_hashtable.34 }
%class.core_hashtable.34 = type <{ ptr, i32, i32, i32, [4 x i8] }>
%class.id_gen = type { i32, %class.svector.11 }
%class.u_map = type { %class.map }
%class.map = type { %class.table2map }
%class.table2map = type { %class.core_hashtable.36 }
%class.core_hashtable.36 = type <{ ptr, i32, i32, i32, [4 x i8] }>
%class.symbol = type { ptr }
%class.obj_map.38 = type { %class.core_hashtable.39 }
%class.core_hashtable.39 = type <{ ptr, i32, i32, i32, [4 x i8] }>
%class.scoped_no_proof = type { %class.scoped_proof_mode.base, [4 x i8] }
%class.scoped_proof_mode.base = type <{ ptr, i32 }>
%"class.qe::mbproj" = type { ptr }
%"class.qe::mbproj::impl" = type <{ ptr, %class.params_ref, %class.th_rewriter, %class.ptr_vector.65, i8, i8, i8, [5 x i8] }>
%class.th_rewriter = type { ptr, %class.params_ref }
%class.ptr_vector.65 = type { %class.vector.66 }
%class.vector.66 = type { ptr }
%class.scoped_proof_mode = type <{ ptr, i32, [4 x i8] }>

; Function Attrs: mustprogress nounwind uwtable
define linkonce_odr hidden noundef i32 @_ZNK11ast_manager10proof_modeEv(ptr noundef nonnull align 8 dereferenceable(976) %0) #4 comdat align 2 {
  %2 = alloca ptr, align 8
  store ptr %0, ptr %2, align 8, !tbaa !107
  %3 = load ptr, ptr %2, align 8
  %4 = getelementptr inbounds nuw %class.ast_manager, ptr %3, i32 0, i32 7
  %5 = load i32, ptr %4, align 8, !tbaa !330
  ret i32 %5
}

; Function Attrs: mustprogress nounwind uwtable
define linkonce_odr hidden void @_ZN11ast_manager17toggle_proof_modeE14proof_gen_mode(ptr noundef nonnull align 8 dereferenceable(976) %0, i32 noundef %1) #4 comdat align 2 {
  %3 = alloca ptr, align 8
  %4 = alloca i32, align 4
  store ptr %0, ptr %3, align 8, !tbaa !107
  store i32 %1, ptr %4, align 4, !tbaa !329
  %5 = load ptr, ptr %3, align 8
  %6 = load i32, ptr %4, align 4, !tbaa !329
  %7 = getelementptr inbounds nuw %class.ast_manager, ptr %5, i32 0, i32 7
  store i32 %6, ptr %7, align 8, !tbaa !330
  ret void
}

; Function Attrs: mustprogress uwtable
define linkonce_odr hidden void @_ZN17scoped_proof_modeC2ER11ast_manager14proof_gen_mode(ptr noundef nonnull align 8 dereferenceable(12) %0, ptr noundef nonnull align 8 dereferenceable(976) %1, i32 noundef %2) unnamed_addr #5 comdat align 2 {
  %4 = alloca ptr, align 8
  %5 = alloca ptr, align 8
  %6 = alloca i32, align 4
  store ptr %0, ptr %4, align 8, !tbaa !254
  store ptr %1, ptr %5, align 8, !tbaa !107
  store i32 %2, ptr %6, align 4, !tbaa !329
  %7 = load ptr, ptr %4, align 8
  %8 = getelementptr inbounds nuw %class.scoped_proof_mode, ptr %7, i32 0, i32 0
  %9 = load ptr, ptr %5, align 8, !tbaa !107
  store ptr %9, ptr %8, align 8, !tbaa !107
  %10 = load ptr, ptr %5, align 8, !tbaa !107
  %11 = call noundef i32 @_ZNK11ast_manager10proof_modeEv(ptr noundef nonnull align 8 dereferenceable(976) %10)
  %12 = getelementptr inbounds nuw %class.scoped_proof_mode, ptr %7, i32 0, i32 1
  store i32 %11, ptr %12, align 8, !tbaa !258
  %13 = load ptr, ptr %5, align 8, !tbaa !107
  %14 = load i32, ptr %6, align 4, !tbaa !329
  call void @_ZN11ast_manager17toggle_proof_modeE14proof_gen_mode(ptr noundef nonnull align 8 dereferenceable(976) %13, i32 noundef %14)
  ret void
}

; Function Attrs: mustprogress nounwind uwtable
define linkonce_odr hidden void @_ZN17scoped_proof_modeD2Ev(ptr noundef nonnull align 8 dereferenceable(12) %0) unnamed_addr #4 comdat align 2 {
  %2 = alloca ptr, align 8
  store ptr %0, ptr %2, align 8, !tbaa !254
  %3 = load ptr, ptr %2, align 8
  %4 = getelementptr inbounds nuw %class.scoped_proof_mode, ptr %3, i32 0, i32 0
  %5 = load ptr, ptr %4, align 8, !tbaa !256
  %6 = getelementptr inbounds nuw %class.scoped_proof_mode, ptr %3, i32 0, i32 1
  %7 = load i32, ptr %6, align 8, !tbaa !258
  call void @_ZN11ast_manager17toggle_proof_modeE14proof_gen_mode(ptr noundef nonnull align 8 dereferenceable(976) %5, i32 noundef %7)
  ret void
}

; Function Attrs: mustprogress uwtable
define linkonce_odr hidden void @_ZN2qe6mbproj4impl6spacerER10ref_vectorI3app11ast_managerER5modelR7obj_refI4exprS4_E(ptr noundef nonnull align 8 dereferenceable(43) %0, ptr noundef nonnull align 8 dereferenceable(16) %1, ptr noundef nonnull align 8 dereferenceable(160) %2, ptr noundef nonnull align 8 dereferenceable(16) %3) #5 comdat align 2 {
  %5 = alloca ptr, align 8
  %6 = alloca ptr, align 8
  %7 = alloca ptr, align 8
  %8 = alloca ptr, align 8
  store ptr %0, ptr %5, align 8, !tbaa !253
  store ptr %1, ptr %6, align 8, !tbaa !272
  store ptr %2, ptr %7, align 8, !tbaa !231
  store ptr %3, ptr %8, align 8, !tbaa !180
  %9 = load ptr, ptr %5, align 8
  %10 = getelementptr inbounds nuw %"class.qe::mbproj::impl", ptr %9, i32 0, i32 6
  %11 = load i8, ptr %10, align 2, !tbaa !269, !range !102, !noundef !103
  %12 = trunc i8 %11 to i1
  br i1 %12, label %13, label %17

13:                                               ; preds = %4
  %14 = load ptr, ptr %6, align 8, !tbaa !272
  %15 = load ptr, ptr %7, align 8, !tbaa !231
  %16 = load ptr, ptr %8, align 8, !tbaa !180
  call void @_ZN2qe6mbproj4impl10spacer_qelER10ref_vectorI3app11ast_managerER5modelR7obj_refI4exprS4_E(ptr noundef nonnull align 8 dereferenceable(43) %9, ptr noundef nonnull align 8 dereferenceable(16) %14, ptr noundef nonnull align 8 dereferenceable(160) %15, ptr noundef nonnull align 8 dereferenceable(16) %16)
  br label %21

17:                                               ; preds = %4
  %18 = load ptr, ptr %6, align 8, !tbaa !272
  %19 = load ptr, ptr %7, align 8, !tbaa !231
  %20 = load ptr, ptr %8, align 8, !tbaa !180
  call void @_ZN2qe6mbproj4impl14spacer_qe_liteER10ref_vectorI3app11ast_managerER5modelR7obj_refI4exprS4_E(ptr noundef nonnull align 8 dereferenceable(43) %9, ptr noundef nonnull align 8 dereferenceable(16) %18, ptr noundef nonnull align 8 dereferenceable(160) %19, ptr noundef nonnull align 8 dereferenceable(16) %20)
  br label %21

21:                                               ; preds = %17, %13
  ret void
}

; Function Attrs: mustprogress uwtable
define linkonce_odr hidden void @_ZN15scoped_no_proofC2ER11ast_manager(ptr noundef nonnull align 8 dereferenceable(12) %0, ptr noundef nonnull align 8 dereferenceable(976) %1) unnamed_addr #5 comdat align 2 {
  %3 = alloca ptr, align 8
  %4 = alloca ptr, align 8
  store ptr %0, ptr %3, align 8, !tbaa !251
  store ptr %1, ptr %4, align 8, !tbaa !107
  %5 = load ptr, ptr %3, align 8
  %6 = load ptr, ptr %4, align 8, !tbaa !107
  call void @_ZN17scoped_proof_modeC2ER11ast_manager14proof_gen_mode(ptr noundef nonnull align 8 dereferenceable(12) %5, ptr noundef nonnull align 8 dereferenceable(976) %6, i32 noundef 0)
  ret void
}

; Function Attrs: mustprogress nounwind uwtable
define linkonce_odr hidden noundef nonnull align 8 dereferenceable(976) ptr @_ZNK7obj_refI4expr11ast_managerE11get_managerEv(ptr noundef nonnull align 8 dereferenceable(16) %0) #4 comdat align 2 {
  %2 = alloca ptr, align 8
  store ptr %0, ptr %2, align 8, !tbaa !180
  %3 = load ptr, ptr %2, align 8
  %4 = getelementptr inbounds nuw %class.obj_ref, ptr %3, i32 0, i32 1
  %5 = load ptr, ptr %4, align 8, !tbaa !182
  ret ptr %5
}

; Function Attrs: mustprogress uwtable
define hidden void @_ZN2qe6mbproj6spacerER10ref_vectorI3app11ast_managerER5modelR7obj_refI4exprS3_E(ptr noundef nonnull align 8 dereferenceable(8) %0, ptr noundef nonnull align 8 dereferenceable(16) %1, ptr noundef nonnull align 8 dereferenceable(160) %2, ptr noundef nonnull align 8 dereferenceable(16) %3) #5 align 2 personality ptr @__gxx_personality_v0 {
  %5 = alloca ptr, align 8
  %6 = alloca ptr, align 8
  %7 = alloca ptr, align 8
  %8 = alloca ptr, align 8
  %9 = alloca %class.scoped_no_proof, align 8
  %10 = alloca ptr, align 8
  %11 = alloca i32, align 4
  store ptr %0, ptr %5, align 8, !tbaa !244
  store ptr %1, ptr %6, align 8, !tbaa !272
  store ptr %2, ptr %7, align 8, !tbaa !231
  store ptr %3, ptr %8, align 8, !tbaa !180
  %12 = load ptr, ptr %5, align 8
  call void @llvm.lifetime.start.p0(i64 16, ptr %9) #3
  %13 = load ptr, ptr %8, align 8, !tbaa !180
  %14 = call noundef nonnull align 8 dereferenceable(976) ptr @_ZNK7obj_refI4expr11ast_managerE11get_managerEv(ptr noundef nonnull align 8 dereferenceable(16) %13)
  call void @_ZN15scoped_no_proofC2ER11ast_manager(ptr noundef nonnull align 8 dereferenceable(12) %9, ptr noundef nonnull align 8 dereferenceable(976) %14)
  %15 = getelementptr inbounds nuw %"class.qe::mbproj", ptr %12, i32 0, i32 0
  %16 = load ptr, ptr %15, align 8, !tbaa !248
  %17 = load ptr, ptr %6, align 8, !tbaa !272
  %18 = load ptr, ptr %7, align 8, !tbaa !231
  %19 = load ptr, ptr %8, align 8, !tbaa !180
  invoke void @_ZN2qe6mbproj4impl6spacerER10ref_vectorI3app11ast_managerER5modelR7obj_refI4exprS4_E(ptr noundef nonnull align 8 dereferenceable(43) %16, ptr noundef nonnull align 8 dereferenceable(16) %17, ptr noundef nonnull align 8 dereferenceable(160) %18, ptr noundef nonnull align 8 dereferenceable(16) %19)
          to label %20 unwind label %21

20:                                               ; preds = %4
  call void @_ZN17scoped_proof_modeD2Ev(ptr noundef nonnull align 8 dereferenceable(12) %9) #3
  call void @llvm.lifetime.end.p0(i64 16, ptr %9) #3
  ret void

21:                                               ; preds = %4
  %22 = landingpad { ptr, i32 }
          cleanup
  %23 = extractvalue { ptr, i32 } %22, 0
  store ptr %23, ptr %10, align 8
  %24 = extractvalue { ptr, i32 } %22, 1
  store i32 %24, ptr %11, align 4
  call void @_ZN17scoped_proof_modeD2Ev(ptr noundef nonnull align 8 dereferenceable(12) %9) #3
  call void @llvm.lifetime.end.p0(i64 16, ptr %9) #3
  br label %25

25:                                               ; preds = %21
  %26 = load ptr, ptr %10, align 8
  %27 = load i32, ptr %11, align 4
  %28 = insertvalue { ptr, i32 } poison, ptr %26, 0
  %29 = insertvalue { ptr, i32 } %28, i32 %27, 1
  resume { ptr, i32 } %29
}