; Function Attrs: mustprogress uwtable
define hidden void @_ZN2qe6mbproj6spacerER10ref_vectorI3app11ast_managerER5modelR7obj_refI4exprS3_E(ptr noundef nonnull readonly align 8 captures(none) dereferenceable(8) %0, ptr noundef nonnull align 8 dereferenceable(16) %1, ptr noundef nonnull align 8 dereferenceable(160) %2, ptr noundef nonnull align 8 dereferenceable(16) %3) local_unnamed_addr #4 align 2 personality ptr @__gxx_personality_v0 {
  %5 = getelementptr inbounds nuw i8, ptr %3, i64 8
  %6 = load ptr, ptr %5, align 8, !tbaa !138
  %7 = getelementptr inbounds nuw i8, ptr %6, i64 712
  %8 = load i32, ptr %7, align 8, !tbaa !206
  store i32 0, ptr %7, align 8, !tbaa !206
  %9 = load ptr, ptr %0, align 8, !tbaa !207
  %10 = getelementptr inbounds nuw i8, ptr %9, i64 42
  %11 = load i8, ptr %10, align 2, !tbaa !222, !range !175, !noundef !139
  %12 = trunc nuw i8 %11 to i1
  br i1 %12, label %13, label %14

13:                                               ; preds = %4
  invoke void @_ZN2qe6mbproj4impl10spacer_qelER10ref_vectorI3app11ast_managerER5modelR7obj_refI4exprS4_E(ptr noundef nonnull align 8 dereferenceable(43) %9, ptr noundef nonnull align 8 dereferenceable(16) %1, ptr noundef nonnull align 8 dereferenceable(160) %2, ptr noundef nonnull align 8 dereferenceable(16) %3)
          to label %_ZN2qe6mbproj4impl6spacerER10ref_vectorI3app11ast_managerER5modelR7obj_refI4exprS4_E.exit unwind label %15

14:                                               ; preds = %4
  invoke void @_ZN2qe6mbproj4impl14spacer_qe_liteER10ref_vectorI3app11ast_managerER5modelR7obj_refI4exprS4_E(ptr noundef nonnull align 8 dereferenceable(43) %9, ptr noundef nonnull align 8 dereferenceable(16) %1, ptr noundef nonnull align 8 dereferenceable(160) %2, ptr noundef nonnull align 8 dereferenceable(16) %3)
          to label %_ZN2qe6mbproj4impl6spacerER10ref_vectorI3app11ast_managerER5modelR7obj_refI4exprS4_E.exit unwind label %15

_ZN2qe6mbproj4impl6spacerER10ref_vectorI3app11ast_managerER5modelR7obj_refI4exprS4_E.exit: ; preds = %13, %14
  store i32 %8, ptr %7, align 8, !tbaa !206
  ret void

15:                                               ; preds = %14, %13
  %16 = landingpad { ptr, i32 }
          cleanup
  store i32 %8, ptr %7, align 8, !tbaa !206
  resume { ptr, i32 } %16
}